; Function Attrs: mustprogress nofree norecurse nosync nounwind willreturn memory(readwrite, inaccessiblemem: none) uwtable
define void @_ZN5ImGui16SetNextWindowPosERK6ImVec2iS2_(ptr noundef nonnull readonly align 4 captures(none) dereferenceable(8) %0, i32 noundef %1, ptr noundef nonnull readonly align 4 captures(none) dereferenceable(8) %2) local_unnamed_addr #34 {
  %4 = load ptr, ptr @GImGui, align 8, !tbaa !216
  %5 = getelementptr inbounds nuw i8, ptr %4, i64 7608
  %6 = load i32, ptr %5, align 8, !tbaa !1020
  %7 = or i32 %6, 1
  store i32 %7, ptr %5, align 8, !tbaa !1020
  %8 = getelementptr inbounds nuw i8, ptr %4, i64 7624
  %9 = load i64, ptr %0, align 4
  store i64 %9, ptr %8, align 8
  %10 = getelementptr inbounds nuw i8, ptr %4, i64 7632
  %11 = load i64, ptr %2, align 4
  store i64 %11, ptr %10, align 8
  %12 = tail call i32 @llvm.umax.i32(i32 %1, i32 1)
  %13 = getelementptr inbounds nuw i8, ptr %4, i64 7612
  store i32 %12, ptr %13, align 4, !tbaa !1075
  ret void
}